; Function Attrs: nounwind uwtable
define noalias nonnull ptr @l_Lean_Elab_Command_getBracketedBinderIds___lambda__1___boxed(ptr noundef %0, ptr noundef %1, ptr noundef %2, ptr noundef %3, ptr noundef %4, ptr noundef %5) local_unnamed_addr #0 {
  %7 = tail call ptr @l_Lean_Syntax_getArgs(ptr noundef %0) #6
  %8 = getelementptr i8, ptr %7, i64 8
  %.val.i = load i64, ptr %8, align 8, !tbaa !11
  %9 = tail call ptr @l_Array_mapMUnsafe_map___at_Lean_Elab_Command_getBracketedBinderIds___spec__2(i64 noundef %.val.i, i64 noundef 0, ptr noundef %7)
  tail call void @lean_inc_heartbeat() #6
  %10 = tail call noalias ptr @mi_malloc_small(i64 noundef 24) #6
  %11 = icmp eq ptr %10, null
  br i1 %11, label %12, label %l_Lean_Elab_Command_getBracketedBinderIds___lambda__1.exit

12:                                               ; preds = %6
  tail call void @lean_internal_panic_out_of_memory() #7
  unreachable

l_Lean_Elab_Command_getBracketedBinderIds___lambda__1.exit: ; preds = %6
  %13 = getelementptr inbounds nuw i8, ptr %10, i64 4
  store i32 1, ptr %10, align 4, !tbaa !4
  store i32 131096, ptr %13, align 4
  %14 = getelementptr inbounds nuw i8, ptr %10, i64 8
  store ptr %9, ptr %14, align 8, !tbaa !9
  %15 = getelementptr inbounds nuw i8, ptr %10, i64 16
  store ptr %5, ptr %15, align 8, !tbaa !9
  %16 = ptrtoint ptr %4 to i64
  %17 = and i64 %16, 1
  %.not = icmp eq i64 %17, 0
  br i1 %.not, label %18, label %lean_dec.exit15

18:                                               ; preds = %l_Lean_Elab_Command_getBracketedBinderIds___lambda__1.exit
  %19 = load i32, ptr %4, align 4, !tbaa !4
  %20 = icmp sgt i32 %19, 1
  br i1 %20, label %21, label %23, !prof !13

21:                                               ; preds = %18
  %22 = add nsw i32 %19, -1
  store i32 %22, ptr %4, align 4, !tbaa !4
  br label %lean_dec.exit15

23:                                               ; preds = %18
  %.not.i = icmp eq i32 %19, 0
  br i1 %.not.i, label %lean_dec.exit15, label %24

24:                                               ; preds = %23
  tail call void @lean_dec_ref_cold(ptr noundef nonnull %4) #6
  br label %lean_dec.exit15

lean_dec.exit15:                                  ; preds = %24, %23, %21, %l_Lean_Elab_Command_getBracketedBinderIds___lambda__1.exit
  %25 = ptrtoint ptr %3 to i64
  %26 = and i64 %25, 1
  %.not24 = icmp eq i64 %26, 0
  br i1 %.not24, label %27, label %lean_dec.exit14

27:                                               ; preds = %lean_dec.exit15
  %28 = load i32, ptr %3, align 4, !tbaa !4
  %29 = icmp sgt i32 %28, 1
  br i1 %29, label %30, label %32, !prof !13

30:                                               ; preds = %27
  %31 = add nsw i32 %28, -1
  store i32 %31, ptr %3, align 4, !tbaa !4
  br label %lean_dec.exit14

32:                                               ; preds = %27
  %.not.i16 = icmp eq i32 %28, 0
  br i1 %.not.i16, label %lean_dec.exit14, label %33

33:                                               ; preds = %32
  tail call void @lean_dec_ref_cold(ptr noundef nonnull %3) #6
  br label %lean_dec.exit14

lean_dec.exit14:                                  ; preds = %33, %32, %30, %lean_dec.exit15
  %34 = ptrtoint ptr %2 to i64
  %35 = and i64 %34, 1
  %.not25 = icmp eq i64 %35, 0
  br i1 %.not25, label %36, label %lean_dec.exit13

36:                                               ; preds = %lean_dec.exit14
  %37 = load i32, ptr %2, align 4, !tbaa !4
  %38 = icmp sgt i32 %37, 1
  br i1 %38, label %39, label %41, !prof !13

39:                                               ; preds = %36
  %40 = add nsw i32 %37, -1
  store i32 %40, ptr %2, align 4, !tbaa !4
  br label %lean_dec.exit13

41:                                               ; preds = %36
  %.not.i18 = icmp eq i32 %37, 0
  br i1 %.not.i18, label %lean_dec.exit13, label %42

42:                                               ; preds = %41
  tail call void @lean_dec_ref_cold(ptr noundef nonnull %2) #6
  br label %lean_dec.exit13

lean_dec.exit13:                                  ; preds = %42, %41, %39, %lean_dec.exit14
  %43 = ptrtoint ptr %1 to i64
  %44 = and i64 %43, 1
  %.not26 = icmp eq i64 %44, 0
  br i1 %.not26, label %45, label %lean_dec.exit12

45:                                               ; preds = %lean_dec.exit13
  %46 = load i32, ptr %1, align 4, !tbaa !4
  %47 = icmp sgt i32 %46, 1
  br i1 %47, label %48, label %50, !prof !13

48:                                               ; preds = %45
  %49 = add nsw i32 %46, -1
  store i32 %49, ptr %1, align 4, !tbaa !4
  br label %lean_dec.exit12

50:                                               ; preds = %45
  %.not.i20 = icmp eq i32 %46, 0
  br i1 %.not.i20, label %lean_dec.exit12, label %51

51:                                               ; preds = %50
  tail call void @lean_dec_ref_cold(ptr noundef nonnull %1) #6
  br label %lean_dec.exit12

lean_dec.exit12:                                  ; preds = %51, %50, %48, %lean_dec.exit13
  %52 = ptrtoint ptr %0 to i64
  %53 = and i64 %52, 1
  %.not27 = icmp eq i64 %53, 0
  br i1 %.not27, label %54, label %lean_dec.exit

54:                                               ; preds = %lean_dec.exit12
  %55 = load i32, ptr %0, align 4, !tbaa !4
  %56 = icmp sgt i32 %55, 1
  br i1 %56, label %57, label %59, !prof !13

57:                                               ; preds = %54
  %58 = add nsw i32 %55, -1
  store i32 %58, ptr %0, align 4, !tbaa !4
  br label %lean_dec.exit

59:                                               ; preds = %54
  %.not.i22 = icmp eq i32 %55, 0
  br i1 %.not.i22, label %lean_dec.exit, label %60

60:                                               ; preds = %59
  tail call void @lean_dec_ref_cold(ptr noundef nonnull %0) #6
  br label %lean_dec.exit

lean_dec.exit:                                    ; preds = %60, %59, %57, %lean_dec.exit12
  ret ptr %10
}